target datalayout = "e-m:e-p270:32:32-p271:32:32-p272:64:64-i64:64-i128:128-f80:128-n8:16:32:64-S128"
target triple = "x86_64-pc-linux-gnu"

; Function Attrs: nounwind uwtable
define internal void @hScale8To15_c(ptr noundef %0, ptr noundef %1, i32 noundef %2, ptr noundef %3, ptr noundef %4, ptr noundef %5, i32 noundef %6) #0 {
  %8 = alloca ptr, align 8
  %9 = alloca ptr, align 8
  %10 = alloca i32, align 4
  %11 = alloca ptr, align 8
  %12 = alloca ptr, align 8
  %13 = alloca ptr, align 8
  %14 = alloca i32, align 4
  %15 = alloca i32, align 4
  %16 = alloca i32, align 4
  %17 = alloca i32, align 4
  %18 = alloca i32, align 4
  store ptr %0, ptr %8, align 8, !tbaa !4
  store ptr %1, ptr %9, align 8, !tbaa !104
  store i32 %2, ptr %10, align 4, !tbaa !14
  store ptr %3, ptr %11, align 8, !tbaa !60
  store ptr %4, ptr %12, align 8, !tbaa !104
  store ptr %5, ptr %13, align 8, !tbaa !12
  store i32 %6, ptr %14, align 4, !tbaa !14
  call void @llvm.lifetime.start.p0(i64 4, ptr %15) #11
  store i32 0, ptr %15, align 4, !tbaa !14
  br label %19

19:                                               ; preds = %73, %7
  %20 = load i32, ptr %15, align 4, !tbaa !14
  %21 = load i32, ptr %10, align 4, !tbaa !14
  %22 = icmp slt i32 %20, %21
  br i1 %22, label %23, label %76

23:                                               ; preds = %19
  call void @llvm.lifetime.start.p0(i64 4, ptr %16) #11
  call void @llvm.lifetime.start.p0(i64 4, ptr %17) #11
  %24 = load ptr, ptr %13, align 8, !tbaa !12
  %25 = load i32, ptr %15, align 4, !tbaa !14
  %26 = sext i32 %25 to i64
  %27 = getelementptr inbounds i32, ptr %24, i64 %26
  %28 = load i32, ptr %27, align 4, !tbaa !14
  store i32 %28, ptr %17, align 4, !tbaa !14
  call void @llvm.lifetime.start.p0(i64 4, ptr %18) #11
  store i32 0, ptr %18, align 4, !tbaa !14
  store i32 0, ptr %16, align 4, !tbaa !14
  br label %29

29:                                               ; preds = %55, %23
  %30 = load i32, ptr %16, align 4, !tbaa !14
  %31 = load i32, ptr %14, align 4, !tbaa !14
  %32 = icmp slt i32 %30, %31
  br i1 %32, label %33, label %58

33:                                               ; preds = %29
  %34 = load ptr, ptr %11, align 8, !tbaa !60
  %35 = load i32, ptr %17, align 4, !tbaa !14
  %36 = load i32, ptr %16, align 4, !tbaa !14
  %37 = add nsw i32 %35, %36
  %38 = sext i32 %37 to i64
  %39 = getelementptr inbounds i8, ptr %34, i64 %38
  %40 = load i8, ptr %39, align 1, !tbaa !91
  %41 = zext i8 %40 to i32
  %42 = load ptr, ptr %12, align 8, !tbaa !104
  %43 = load i32, ptr %14, align 4, !tbaa !14
  %44 = load i32, ptr %15, align 4, !tbaa !14
  %45 = mul nsw i32 %43, %44
  %46 = load i32, ptr %16, align 4, !tbaa !14
  %47 = add nsw i32 %45, %46
  %48 = sext i32 %47 to i64
  %49 = getelementptr inbounds i16, ptr %42, i64 %48
  %50 = load i16, ptr %49, align 2, !tbaa !102
  %51 = sext i16 %50 to i32
  %52 = mul nsw i32 %41, %51
  %53 = load i32, ptr %18, align 4, !tbaa !14
  %54 = add nsw i32 %53, %52
  store i32 %54, ptr %18, align 4, !tbaa !14
  br label %55

55:                                               ; preds = %33
  %56 = load i32, ptr %16, align 4, !tbaa !14
  %57 = add nsw i32 %56, 1
  store i32 %57, ptr %16, align 4, !tbaa !14
  br label %29, !llvm.loop !219

58:                                               ; preds = %29
  %59 = load i32, ptr %18, align 4, !tbaa !14
  %60 = ashr i32 %59, 7
  %61 = icmp sgt i32 %60, 32767
  br i1 %61, label %62, label %63

62:                                               ; preds = %58
  br label %66

63:                                               ; preds = %58
  %64 = load i32, ptr %18, align 4, !tbaa !14
  %65 = ashr i32 %64, 7
  br label %66

66:                                               ; preds = %63, %62
  %67 = phi i32 [ 32767, %62 ], [ %65, %63 ]
  %68 = trunc i32 %67 to i16
  %69 = load ptr, ptr %9, align 8, !tbaa !104
  %70 = load i32, ptr %15, align 4, !tbaa !14
  %71 = sext i32 %70 to i64
  %72 = getelementptr inbounds i16, ptr %69, i64 %71
  store i16 %68, ptr %72, align 2, !tbaa !102
  call void @llvm.lifetime.end.p0(i64 4, ptr %18) #11
  call void @llvm.lifetime.end.p0(i64 4, ptr %17) #11
  call void @llvm.lifetime.end.p0(i64 4, ptr %16) #11
  br label %73

73:                                               ; preds = %66
  %74 = load i32, ptr %15, align 4, !tbaa !14
  %75 = add nsw i32 %74, 1
  store i32 %75, ptr %15, align 4, !tbaa !14
  br label %19, !llvm.loop !220

76:                                               ; preds = %19
  call void @llvm.lifetime.end.p0(i64 4, ptr %15) #11
  ret void
}